target datalayout = "e-m:e-p270:32:32-p271:32:32-p272:64:64-i64:64-i128:128-f80:128-n8:16:32:64-S128"
target triple = "x86_64-pc-linux-gnu"

%struct.decNumber = type { i32, i32, i8, [1 x i8] }

; Function Attrs: mustprogress nounwind uwtable
define ptr @uprv_decNumberZero_77(ptr noundef %0) #2 {
  %2 = alloca ptr, align 8
  store ptr %0, ptr %2, align 8, !tbaa !3
  %3 = load ptr, ptr %2, align 8, !tbaa !3
  %4 = getelementptr inbounds nuw %struct.decNumber, ptr %3, i32 0, i32 2
  store i8 0, ptr %4, align 4, !tbaa !9
  %5 = load ptr, ptr %2, align 8, !tbaa !3
  %6 = getelementptr inbounds nuw %struct.decNumber, ptr %5, i32 0, i32 1
  store i32 0, ptr %6, align 4, !tbaa !17
  %7 = load ptr, ptr %2, align 8, !tbaa !3
  %8 = getelementptr inbounds nuw %struct.decNumber, ptr %7, i32 0, i32 0
  store i32 1, ptr %8, align 4, !tbaa !16
  %9 = load ptr, ptr %2, align 8, !tbaa !3
  %10 = getelementptr inbounds nuw %struct.decNumber, ptr %9, i32 0, i32 3
  %11 = getelementptr inbounds [1 x i8], ptr %10, i64 0, i64 0
  store i8 0, ptr %11, align 1, !tbaa !13
  %12 = load ptr, ptr %2, align 8, !tbaa !3
  ret ptr %12
}

; Function Attrs: mustprogress uwtable
define internal void @_ZL9decStatusP9decNumberjP10decContext(ptr noundef %0, i32 noundef %1, ptr noundef %2) #0 {
  %4 = alloca ptr, align 8
  %5 = alloca i32, align 4
  %6 = alloca ptr, align 8
  store ptr %0, ptr %4, align 8, !tbaa !3
  store i32 %1, ptr %5, align 4, !tbaa !7
  store ptr %2, ptr %6, align 8, !tbaa !3
  %7 = load i32, ptr %5, align 4, !tbaa !7
  %8 = and i32 %7, 221
  %9 = icmp ne i32 %8, 0
  br i1 %9, label %10, label %23

10:                                               ; preds = %3
  %11 = load i32, ptr %5, align 4, !tbaa !7
  %12 = and i32 %11, 1073741824
  %13 = icmp ne i32 %12, 0
  br i1 %13, label %14, label %17

14:                                               ; preds = %10
  %15 = load i32, ptr %5, align 4, !tbaa !7
  %16 = and i32 %15, -1073741825
  store i32 %16, ptr %5, align 4, !tbaa !7
  br label %22

17:                                               ; preds = %10
  %18 = load ptr, ptr %4, align 8, !tbaa !3
  %19 = call ptr @uprv_decNumberZero_77(ptr noundef %18)
  %20 = load ptr, ptr %4, align 8, !tbaa !3
  %21 = getelementptr inbounds nuw %struct.decNumber, ptr %20, i32 0, i32 2
  store i8 32, ptr %21, align 4, !tbaa !9
  br label %22

22:                                               ; preds = %17, %14
  br label %23

23:                                               ; preds = %22, %3
  %24 = load ptr, ptr %6, align 8, !tbaa !3
  %25 = load i32, ptr %5, align 4, !tbaa !7
  %26 = call ptr @uprv_decContextSetStatus_77(ptr noundef %24, i32 noundef %25)
  ret void
}

; Function Attrs: mustprogress uwtable
define ptr @uprv_decNumberMaxMag_77(ptr noundef %0, ptr noundef %1, ptr noundef %2, ptr noundef %3) #0 {
  %5 = alloca ptr, align 8
  %6 = alloca ptr, align 8
  %7 = alloca ptr, align 8
  %8 = alloca ptr, align 8
  %9 = alloca i32, align 4
  store ptr %0, ptr %5, align 8, !tbaa !3
  store ptr %1, ptr %6, align 8, !tbaa !3
  store ptr %2, ptr %7, align 8, !tbaa !3
  store ptr %3, ptr %8, align 8, !tbaa !3
  call void @llvm.lifetime.start.p0(i64 4, ptr %9) #8
  store i32 0, ptr %9, align 4, !tbaa !7
  %10 = load ptr, ptr %5, align 8, !tbaa !3
  %11 = load ptr, ptr %6, align 8, !tbaa !3
  %12 = load ptr, ptr %7, align 8, !tbaa !3
  %13 = load ptr, ptr %8, align 8, !tbaa !3
  %14 = call noundef ptr @_ZL12decCompareOpP9decNumberPKS_S2_P10decContexthPj(ptr noundef %10, ptr noundef %11, ptr noundef %12, ptr noundef %13, i8 noundef zeroext 7, ptr noundef %9)
  %15 = load i32, ptr %9, align 4, !tbaa !7
  %16 = icmp ne i32 %15, 0
  br i1 %16, label %17, label %21

17:                                               ; preds = %4
  %18 = load ptr, ptr %5, align 8, !tbaa !3
  %19 = load i32, ptr %9, align 4, !tbaa !7
  %20 = load ptr, ptr %8, align 8, !tbaa !3
  call void @_ZL9decStatusP9decNumberjP10decContext(ptr noundef %18, i32 noundef %19, ptr noundef %20)
  br label %21

21:                                               ; preds = %17, %4
  %22 = load ptr, ptr %5, align 8, !tbaa !3
  call void @llvm.lifetime.end.p0(i64 4, ptr %9) #8
  ret ptr %22
}